target datalayout = "e-m:e-p270:32:32-p271:32:32-p272:64:64-i64:64-i128:128-f80:128-n8:16:32:64-S128"
target triple = "x86_64-unknown-linux-gnu"

%"class.icu_75::UnicodeString" = type { %"class.icu_75::Replaceable", %"union.icu_75::UnicodeString::StackBufferOrFields" }
%"class.icu_75::Replaceable" = type { %"class.icu_75::UObject" }
%"class.icu_75::UObject" = type { ptr }
%"union.icu_75::UnicodeString::StackBufferOrFields" = type { %struct.anon.0, [32 x i8] }
%struct.anon.0 = type { i16, i32, i32, ptr }
%struct.anon = type { i16, [27 x i16] }
%"class.icu_75::UVector" = type { %"class.icu_75::UObject", i32, i32, ptr, ptr, ptr }
%"class.icu_75::TransliteratorRegistry" = type { [8 x i8], %"class.icu_75::Hashtable", %"class.icu_75::Hashtable", %"class.icu_75::UVector", %"class.icu_75::Hashtable" }
%"class.icu_75::Hashtable" = type { ptr, %struct.UHashtable }
%struct.UHashtable = type { ptr, ptr, ptr, ptr, ptr, ptr, i32, i32, i32, i32, float, float, i8, i8 }
%struct.UHashElement = type { i32, %union.UElement, %union.UElement }
%union.UElement = type { ptr }

@_ZZNK6icu_7522TransliteratorRegistry14getAvailableIDEiE5empty = internal global %"class.icu_75::UnicodeString" zeroinitializer, align 8
@_ZGVZNK6icu_7522TransliteratorRegistry14getAvailableIDEiE5empty = internal global i64 0, align 8
@__dso_handle = external hidden global i8
@_ZTVN6icu_7513UnicodeStringE = external unnamed_addr constant { [13 x ptr] }, align 8
@_ZTVN6icu_7511ReplaceableE = external unnamed_addr constant { [13 x ptr] }, align 8
@_ZTVN6icu_757UObjectE = external unnamed_addr constant { [5 x ptr] }, align 8

; Function Attrs: mustprogress nounwind uwtable
define linkonce_odr void @_ZN6icu_757UObjectC2Ev(ptr noundef nonnull align 8 dereferenceable(8) %this) unnamed_addr #0 comdat align 2 {
entry:
  %this.addr = alloca ptr, align 8
  store ptr %this, ptr %this.addr, align 8
  %this1 = load ptr, ptr %this.addr, align 8
  store ptr getelementptr inbounds ({ [5 x ptr] }, ptr @_ZTVN6icu_757UObjectE, i32 0, i32 0, i32 2), ptr %this1, align 8
  ret void
}

; Function Attrs: mustprogress nounwind uwtable
define linkonce_odr void @_ZN6icu_7511ReplaceableC2Ev(ptr noundef nonnull align 8 dereferenceable(8) %this) unnamed_addr #0 comdat align 2 {
entry:
  %this.addr = alloca ptr, align 8
  store ptr %this, ptr %this.addr, align 8
  %this1 = load ptr, ptr %this.addr, align 8
  call void @_ZN6icu_757UObjectC2Ev(ptr noundef nonnull align 8 dereferenceable(8) %this1) #9
  store ptr getelementptr inbounds ({ [13 x ptr] }, ptr @_ZTVN6icu_7511ReplaceableE, i32 0, i32 0, i32 2), ptr %this1, align 8
  ret void
}

; Function Attrs: mustprogress uwtable
define linkonce_odr void @_ZN6icu_7513UnicodeStringC2Ev(ptr noundef nonnull align 8 dereferenceable(64) %this) unnamed_addr #1 comdat align 2 {
entry:
  %this.addr = alloca ptr, align 8
  store ptr %this, ptr %this.addr, align 8
  %this1 = load ptr, ptr %this.addr, align 8
  call void @_ZN6icu_7511ReplaceableC2Ev(ptr noundef nonnull align 8 dereferenceable(8) %this1)
  store ptr getelementptr inbounds ({ [13 x ptr] }, ptr @_ZTVN6icu_7513UnicodeStringE, i32 0, i32 0, i32 2), ptr %this1, align 8
  %fUnion2 = getelementptr inbounds %"class.icu_75::UnicodeString", ptr %this1, i32 0, i32 1
  %fLengthAndFlags = getelementptr inbounds %struct.anon, ptr %fUnion2, i32 0, i32 0
  store i16 2, ptr %fLengthAndFlags, align 8
  ret void
}

; Function Attrs: mustprogress uwtable
define linkonce_odr noundef ptr @_ZNK6icu_759Hashtable11nextElementERi(ptr noundef nonnull align 8 dereferenceable(88) %this, ptr noundef nonnull align 4 dereferenceable(4) %pos) #1 comdat align 2 {
entry:
  %this.addr = alloca ptr, align 8
  %pos.addr = alloca ptr, align 8
  store ptr %this, ptr %this.addr, align 8
  store ptr %pos, ptr %pos.addr, align 8
  %this1 = load ptr, ptr %this.addr, align 8
  %hash = getelementptr inbounds %"class.icu_75::Hashtable", ptr %this1, i32 0, i32 0
  %0 = load ptr, ptr %hash, align 8
  %1 = load ptr, ptr %pos.addr, align 8
  %call = call ptr @uhash_nextElement_75(ptr noundef %0, ptr noundef %1)
  ret ptr %call
}

; Function Attrs: mustprogress uwtable
define linkonce_odr noundef i32 @_ZNK6icu_759Hashtable5countEv(ptr noundef nonnull align 8 dereferenceable(88) %this) #1 comdat align 2 {
entry:
  %this.addr = alloca ptr, align 8
  store ptr %this, ptr %this.addr, align 8
  %this1 = load ptr, ptr %this.addr, align 8
  %hash = getelementptr inbounds %"class.icu_75::Hashtable", ptr %this1, i32 0, i32 0
  %0 = load ptr, ptr %hash, align 8
  %call = call i32 @uhash_count_75(ptr noundef %0)
  ret i32 %call
}

; Function Attrs: mustprogress uwtable
define noundef nonnull align 8 dereferenceable(64) ptr @_ZNK6icu_7522TransliteratorRegistry14getAvailableIDEi(ptr noundef nonnull align 8 dereferenceable(312) %this, i32 noundef %index) #1 align 2 personality ptr @__gxx_personality_v0 {
entry:
  %retval = alloca ptr, align 8
  %this.addr = alloca ptr, align 8
  %index.addr = alloca i32, align 4
  %pos = alloca i32, align 4
  %e = alloca ptr, align 8
  %exn.slot = alloca ptr, align 8
  %ehselector.slot = alloca i32, align 4
  store ptr %this, ptr %this.addr, align 8
  store i32 %index, ptr %index.addr, align 4
  %this1 = load ptr, ptr %this.addr, align 8
  %0 = load i32, ptr %index.addr, align 4
  %cmp = icmp slt i32 %0, 0
  br i1 %cmp, label %if.then, label %lor.lhs.false

lor.lhs.false:                                    ; preds = %entry
  %1 = load i32, ptr %index.addr, align 4
  %availableIDs = getelementptr inbounds %"class.icu_75::TransliteratorRegistry", ptr %this1, i32 0, i32 4
  %call = call noundef i32 @_ZNK6icu_759Hashtable5countEv(ptr noundef nonnull align 8 dereferenceable(88) %availableIDs)
  %cmp2 = icmp sge i32 %1, %call
  br i1 %cmp2, label %if.then, label %if.end

if.then:                                          ; preds = %lor.lhs.false, %entry
  store i32 0, ptr %index.addr, align 4
  br label %if.end

if.end:                                           ; preds = %if.then, %lor.lhs.false
  store i32 -1, ptr %pos, align 4
  store ptr null, ptr %e, align 8
  br label %while.cond

while.cond:                                       ; preds = %if.end8, %if.end
  %2 = load i32, ptr %index.addr, align 4
  %dec = add nsw i32 %2, -1
  store i32 %dec, ptr %index.addr, align 4
  %cmp3 = icmp sge i32 %2, 0
  br i1 %cmp3, label %while.body, label %while.end

while.body:                                       ; preds = %while.cond
  %availableIDs4 = getelementptr inbounds %"class.icu_75::TransliteratorRegistry", ptr %this1, i32 0, i32 4
  %call5 = call noundef ptr @_ZNK6icu_759Hashtable11nextElementERi(ptr noundef nonnull align 8 dereferenceable(88) %availableIDs4, ptr noundef nonnull align 4 dereferenceable(4) %pos)
  store ptr %call5, ptr %e, align 8
  %3 = load ptr, ptr %e, align 8
  %cmp6 = icmp eq ptr %3, null
  br i1 %cmp6, label %if.then7, label %if.end8

if.then7:                                         ; preds = %while.body
  br label %while.end

if.end8:                                          ; preds = %while.body
  br label %while.cond, !llvm.loop !13

while.end:                                        ; preds = %if.then7, %while.cond
  %4 = load ptr, ptr %e, align 8
  %cmp9 = icmp ne ptr %4, null
  br i1 %cmp9, label %if.then10, label %if.end11

if.then10:                                        ; preds = %while.end
  %5 = load ptr, ptr %e, align 8
  %key = getelementptr inbounds %struct.UHashElement, ptr %5, i32 0, i32 2
  %6 = load ptr, ptr %key, align 8
  store ptr %6, ptr %retval, align 8
  br label %return

if.end11:                                         ; preds = %while.end
  %7 = load atomic i8, ptr @_ZGVZNK6icu_7522TransliteratorRegistry14getAvailableIDEiE5empty acquire, align 8
  %guard.uninitialized = icmp eq i8 %7, 0
  br i1 %guard.uninitialized, label %init.check, label %init.end, !prof !14

init.check:                                       ; preds = %if.end11
  %8 = call i32 @__cxa_guard_acquire(ptr @_ZGVZNK6icu_7522TransliteratorRegistry14getAvailableIDEiE5empty) #9
  %tobool = icmp ne i32 %8, 0
  br i1 %tobool, label %init, label %init.end

init:                                             ; preds = %init.check
  invoke void @_ZN6icu_7513UnicodeStringC2Ev(ptr noundef nonnull align 8 dereferenceable(64) @_ZZNK6icu_7522TransliteratorRegistry14getAvailableIDEiE5empty)
          to label %invoke.cont unwind label %lpad

invoke.cont:                                      ; preds = %init
  %9 = call i32 @__cxa_atexit(ptr @_ZN6icu_7513UnicodeStringD1Ev, ptr @_ZZNK6icu_7522TransliteratorRegistry14getAvailableIDEiE5empty, ptr @__dso_handle) #9
  call void @__cxa_guard_release(ptr @_ZGVZNK6icu_7522TransliteratorRegistry14getAvailableIDEiE5empty) #9
  br label %init.end

init.end:                                         ; preds = %invoke.cont, %init.check, %if.end11
  store ptr @_ZZNK6icu_7522TransliteratorRegistry14getAvailableIDEiE5empty, ptr %retval, align 8
  br label %return

lpad:                                             ; preds = %init
  %10 = landingpad { ptr, i32 }
          cleanup
  %11 = extractvalue { ptr, i32 } %10, 0
  store ptr %11, ptr %exn.slot, align 8
  %12 = extractvalue { ptr, i32 } %10, 1
  store i32 %12, ptr %ehselector.slot, align 4
  call void @__cxa_guard_abort(ptr @_ZGVZNK6icu_7522TransliteratorRegistry14getAvailableIDEiE5empty) #9
  br label %eh.resume

return:                                           ; preds = %init.end, %if.then10
  %13 = load ptr, ptr %retval, align 8
  ret ptr %13

eh.resume:                                        ; preds = %lpad
  %exn = load ptr, ptr %exn.slot, align 8
  %sel = load i32, ptr %ehselector.slot, align 4
  %lpad.val = insertvalue { ptr, i32 } poison, ptr %exn, 0
  %lpad.val12 = insertvalue { ptr, i32 } %lpad.val, i32 %sel, 1
  resume { ptr, i32 } %lpad.val12
}