; Function Attrs: mustprogress uwtable
define noundef nonnull align 8 dereferenceable(64) ptr @_ZNK6icu_7522TransliteratorRegistry14getAvailableIDEi(ptr nocapture noundef nonnull readonly align 8 dereferenceable(312) %this, i32 noundef %index) local_unnamed_addr #1 align 2 personality ptr @__gxx_personality_v0 {
entry:
  %pos = alloca i32, align 4
  %cmp = icmp slt i32 %index, 0
  br i1 %cmp, label %if.then, label %lor.lhs.false

lor.lhs.false:                                    ; preds = %entry
  %availableIDs = getelementptr inbounds i8, ptr %this, i64 224
  %0 = load ptr, ptr %availableIDs, align 8
  %call.i = tail call noundef i32 @uhash_count_75(ptr noundef %0)
  %cmp2.not = icmp sgt i32 %call.i, %index
  br i1 %cmp2.not, label %if.end, label %if.then

if.then:                                          ; preds = %lor.lhs.false, %entry
  br label %if.end

if.end:                                           ; preds = %if.then, %lor.lhs.false
  %index.addr.0 = phi i32 [ 0, %if.then ], [ %index, %lor.lhs.false ]
  store i32 -1, ptr %pos, align 4
  %availableIDs4 = getelementptr inbounds i8, ptr %this, i64 224
  br label %while.body

while.cond:                                       ; preds = %while.body
  %dec = add nsw i32 %index.addr.19, -1
  %cmp3 = icmp sgt i32 %index.addr.19, 0
  br i1 %cmp3, label %while.body, label %if.then10, !llvm.loop !11

while.body:                                       ; preds = %if.end, %while.cond
  %index.addr.19 = phi i32 [ %index.addr.0, %if.end ], [ %dec, %while.cond ]
  %1 = load ptr, ptr %availableIDs4, align 8
  %call.i5 = call noundef ptr @uhash_nextElement_75(ptr noundef %1, ptr noundef nonnull %pos)
  %cmp6 = icmp eq ptr %call.i5, null
  br i1 %cmp6, label %if.end11, label %while.cond, !llvm.loop !11

if.then10:                                        ; preds = %while.cond
  %key = getelementptr inbounds i8, ptr %call.i5, i64 16
  %2 = load ptr, ptr %key, align 8
  br label %return

if.end11:                                         ; preds = %while.body
  %3 = load atomic i8, ptr @_ZGVZNK6icu_7522TransliteratorRegistry14getAvailableIDEiE5empty acquire, align 8
  %guard.uninitialized = icmp eq i8 %3, 0
  br i1 %guard.uninitialized, label %init.check, label %return, !prof !12

init.check:                                       ; preds = %if.end11
  %4 = call i32 @__cxa_guard_acquire(ptr nonnull @_ZGVZNK6icu_7522TransliteratorRegistry14getAvailableIDEiE5empty) #15
  %tobool.not = icmp eq i32 %4, 0
  br i1 %tobool.not, label %return, label %invoke.cont

invoke.cont:                                      ; preds = %init.check
  store ptr getelementptr inbounds ({ [13 x ptr] }, ptr @_ZTVN6icu_7513UnicodeStringE, i64 0, i32 0, i64 2), ptr @_ZZNK6icu_7522TransliteratorRegistry14getAvailableIDEiE5empty, align 8
  store i16 2, ptr getelementptr inbounds (%"class.icu_75::UnicodeString", ptr @_ZZNK6icu_7522TransliteratorRegistry14getAvailableIDEiE5empty, i64 0, i32 1, i32 0, i32 0), align 8
  %5 = call i32 @__cxa_atexit(ptr nonnull @_ZN6icu_7513UnicodeStringD1Ev, ptr nonnull @_ZZNK6icu_7522TransliteratorRegistry14getAvailableIDEiE5empty, ptr nonnull @__dso_handle) #15
  call void @__cxa_guard_release(ptr nonnull @_ZGVZNK6icu_7522TransliteratorRegistry14getAvailableIDEiE5empty) #15
  br label %return

return:                                           ; preds = %if.end11, %init.check, %invoke.cont, %if.then10
  %retval.0 = phi ptr [ %2, %if.then10 ], [ @_ZZNK6icu_7522TransliteratorRegistry14getAvailableIDEiE5empty, %invoke.cont ], [ @_ZZNK6icu_7522TransliteratorRegistry14getAvailableIDEiE5empty, %init.check ], [ @_ZZNK6icu_7522TransliteratorRegistry14getAvailableIDEiE5empty, %if.end11 ]
  ret ptr %retval.0
}